; ModuleID = 'source-C-CXX/55/1681.c'
source_filename = "source-C-CXX/55/1681.c"
target datalayout = "e-m:e-p270:32:32-p271:32:32-p272:64:64-i64:64-f80:128-n8:16:32:64-S128"
target triple = "x86_64-pc-linux-gnu"

@.str = private unnamed_addr constant [4 x i8] c"%ld\00", align 1
@.str.1 = private unnamed_addr constant [3 x i8] c"%d\00", align 1

; Function Attrs: nofree nounwind sspstrong uwtable
define dso_local void @main() local_unnamed_addr #0 {
  %1 = alloca i64, align 8
  %2 = bitcast i64* %1 to i8*
  call void @llvm.lifetime.start.p0i8(i64 8, i8* nonnull %2) #3
  %3 = call i32 (i8*, ...) @__isoc99_scanf(i8* getelementptr inbounds ([4 x i8], [4 x i8]* @.str, i64 0, i64 0), i64* nonnull %1)
  %4 = load i64, i64* %1, align 8, !tbaa !5
  %5 = srem i64 %4, 10000
  %6 = sdiv i64 %4, 10000
  %7 = srem i64 %4, 1000
  %8 = sub nsw i64 %5, %7
  %9 = trunc i64 %8 to i16
  %10 = sdiv i16 %9, 100
  %11 = sext i16 %10 to i64
  %12 = srem i64 %4, 100
  %13 = srem i64 %4, 10
  %14 = sub nsw i64 %12, %13
  %15 = mul nsw i64 %14, 100
  %16 = mul nsw i64 %13, 10000
  %17 = sub nsw i64 %7, %12
  %18 = add nsw i64 %17, %6
  %19 = add nsw i64 %18, %16
  %20 = add nsw i64 %19, %15
  %21 = add nsw i64 %20, %11
  %22 = srem i64 %21, 10
  %23 = icmp eq i64 %22, 0
  %24 = sdiv i64 %21, 10
  %25 = select i1 %23, i64 %24, i64 %21
  %26 = srem i64 %25, 10
  %27 = icmp eq i64 %26, 0
  %28 = sdiv i64 %25, 10
  %29 = select i1 %27, i64 %28, i64 %25
  %30 = srem i64 %29, 10
  %31 = icmp eq i64 %30, 0
  %32 = sdiv i64 %29, 10
  %33 = select i1 %31, i64 %32, i64 %29
  %34 = call i32 (i8*, ...) @printf(i8* nonnull dereferenceable(1) getelementptr inbounds ([3 x i8], [3 x i8]* @.str.1, i64 0, i64 0), i64 %33)
  call void @llvm.lifetime.end.p0i8(i64 8, i8* nonnull %2) #3
  ret void
}

; Function Attrs: argmemonly mustprogress nofree nosync nounwind willreturn
declare void @llvm.lifetime.start.p0i8(i64 immarg, i8* nocapture) #1

; Function Attrs: nofree nounwind
declare noundef i32 @__isoc99_scanf(i8* nocapture noundef readonly, ...) local_unnamed_addr #2

; Function Attrs: nofree nounwind
declare noundef i32 @printf(i8* nocapture noundef readonly, ...) local_unnamed_addr #2

; Function Attrs: argmemonly mustprogress nofree nosync nounwind willreturn
declare void @llvm.lifetime.end.p0i8(i64 immarg, i8* nocapture) #1


!llvm.module.flags = !{!0, !1, !2, !3}
!llvm.ident = !{!4}

!0 = !{i32 1, !"wchar_size", i32 4}
!1 = !{i32 7, !"PIC Level", i32 2}
!2 = !{i32 7, !"PIE Level", i32 2}
!3 = !{i32 7, !"uwtable", i32 1}
!4 = !{!"clang version 13.0.0"}
!5 = !{!6, !6, i64 0}
!6 = !{!"long", !7, i64 0}
!7 = !{!"omnipotent char", !8, i64 0}
!8 = !{!"Simple C/C++ TBAA"}
